; ModuleID = '31/1053.c'
source_filename = "31/1053.c"
target datalayout = "e-m:e-p270:32:32-p271:32:32-p272:64:64-i64:64-f80:128-n8:16:32:64-S128"
target triple = "x86_64-pc-linux-gnu"

%struct.node = type { [20 x i8], [20 x i8], i8, i32, [10 x i8], [20 x i8], %struct.node*, %struct.node* }

@__const.main.constant = private unnamed_addr constant [4 x i8] c"end\00", align 1
@.str = private unnamed_addr constant [18 x i8] c"%s %s %c %d %s %s\00", align 1
@.str.1 = private unnamed_addr constant [3 x i8] c"%s\00", align 1
@.str.2 = private unnamed_addr constant [15 x i8] c"%s %c %d %s %s\00", align 1
@.str.3 = private unnamed_addr constant [19 x i8] c"%s %s %c %d %s %s\0A\00", align 1

; Function Attrs: noinline nounwind uwtable
define dso_local void @main() #0 {
  %1 = alloca [100 x i8], align 16
  %2 = alloca [4 x i8], align 1
  %3 = alloca %struct.node, align 8
  %4 = alloca %struct.node*, align 8
  %5 = alloca %struct.node*, align 8
  %6 = alloca %struct.node*, align 8
  %7 = alloca %struct.node*, align 8
  %8 = alloca i32, align 4
  %9 = alloca i32, align 4
  %10 = bitcast [4 x i8]* %2 to i8*
  call void @llvm.memcpy.p0i8.p0i8.i64(i8* align 1 %10, i8* align 1 getelementptr inbounds ([4 x i8], [4 x i8]* @__const.main.constant, i32 0, i32 0), i64 4, i1 false)
  store i32 1, i32* %8, align 4
  store %struct.node* %3, %struct.node** %4, align 8
  %11 = getelementptr inbounds %struct.node, %struct.node* %3, i32 0, i32 6
  store %struct.node* null, %struct.node** %11, align 8
  %12 = getelementptr inbounds %struct.node, %struct.node* %3, i32 0, i32 7
  store %struct.node* null, %struct.node** %12, align 8
  %13 = load %struct.node*, %struct.node** %4, align 8
  store %struct.node* %13, %struct.node** %5, align 8
  %14 = load %struct.node*, %struct.node** %5, align 8
  store %struct.node* %14, %struct.node** %6, align 8
  %15 = getelementptr inbounds %struct.node, %struct.node* %3, i32 0, i32 0
  %16 = getelementptr inbounds [20 x i8], [20 x i8]* %15, i64 0, i64 0
  %17 = getelementptr inbounds %struct.node, %struct.node* %3, i32 0, i32 1
  %18 = getelementptr inbounds [20 x i8], [20 x i8]* %17, i64 0, i64 0
  %19 = getelementptr inbounds %struct.node, %struct.node* %3, i32 0, i32 2
  %20 = getelementptr inbounds %struct.node, %struct.node* %3, i32 0, i32 3
  %21 = getelementptr inbounds %struct.node, %struct.node* %3, i32 0, i32 4
  %22 = getelementptr inbounds [10 x i8], [10 x i8]* %21, i64 0, i64 0
  %23 = getelementptr inbounds %struct.node, %struct.node* %3, i32 0, i32 5
  %24 = getelementptr inbounds [20 x i8], [20 x i8]* %23, i64 0, i64 0
  %25 = call i32 (i8*, ...) @__isoc99_scanf(i8* getelementptr inbounds ([18 x i8], [18 x i8]* @.str, i64 0, i64 0), i8* %16, i8* %18, i8* %19, i32* %20, i8* %22, i8* %24)
  %26 = getelementptr inbounds [100 x i8], [100 x i8]* %1, i64 0, i64 0
  %27 = call i32 (i8*, ...) @__isoc99_scanf(i8* getelementptr inbounds ([3 x i8], [3 x i8]* @.str.1, i64 0, i64 0), i8* %26)
  br label %28

28:                                               ; preds = %33, %0
  %29 = getelementptr inbounds [100 x i8], [100 x i8]* %1, i64 0, i64 0
  %30 = getelementptr inbounds [4 x i8], [4 x i8]* %2, i64 0, i64 0
  %31 = call i32 @strcmp(i8* %29, i8* %30) #5
  %32 = icmp ne i32 %31, 0
  br i1 %32, label %33, label %69

33:                                               ; preds = %28
  %34 = call noalias i8* @malloc(i64 96) #6
  %35 = bitcast i8* %34 to %struct.node*
  %36 = load %struct.node*, %struct.node** %5, align 8
  %37 = getelementptr inbounds %struct.node, %struct.node* %36, i32 0, i32 6
  store %struct.node* %35, %struct.node** %37, align 8
  %38 = load %struct.node*, %struct.node** %5, align 8
  store %struct.node* %38, %struct.node** %7, align 8
  %39 = load %struct.node*, %struct.node** %5, align 8
  %40 = getelementptr inbounds %struct.node, %struct.node* %39, i32 0, i32 6
  %41 = load %struct.node*, %struct.node** %40, align 8
  store %struct.node* %41, %struct.node** %5, align 8
  %42 = load %struct.node*, %struct.node** %5, align 8
  %43 = getelementptr inbounds %struct.node, %struct.node* %42, i32 0, i32 0
  %44 = getelementptr inbounds [20 x i8], [20 x i8]* %43, i64 0, i64 0
  %45 = getelementptr inbounds [100 x i8], [100 x i8]* %1, i64 0, i64 0
  %46 = call i8* @strcpy(i8* %44, i8* %45) #6
  %47 = load %struct.node*, %struct.node** %5, align 8
  %48 = getelementptr inbounds %struct.node, %struct.node* %47, i32 0, i32 1
  %49 = getelementptr inbounds [20 x i8], [20 x i8]* %48, i64 0, i64 0
  %50 = load %struct.node*, %struct.node** %5, align 8
  %51 = getelementptr inbounds %struct.node, %struct.node* %50, i32 0, i32 2
  %52 = load %struct.node*, %struct.node** %5, align 8
  %53 = getelementptr inbounds %struct.node, %struct.node* %52, i32 0, i32 3
  %54 = load %struct.node*, %struct.node** %5, align 8
  %55 = getelementptr inbounds %struct.node, %struct.node* %54, i32 0, i32 4
  %56 = getelementptr inbounds [10 x i8], [10 x i8]* %55, i64 0, i64 0
  %57 = load %struct.node*, %struct.node** %5, align 8
  %58 = getelementptr inbounds %struct.node, %struct.node* %57, i32 0, i32 5
  %59 = getelementptr inbounds [20 x i8], [20 x i8]* %58, i64 0, i64 0
  %60 = call i32 (i8*, ...) @__isoc99_scanf(i8* getelementptr inbounds ([15 x i8], [15 x i8]* @.str.2, i64 0, i64 0), i8* %49, i8* %51, i32* %53, i8* %56, i8* %59)
  %61 = load %struct.node*, %struct.node** %7, align 8
  %62 = load %struct.node*, %struct.node** %5, align 8
  %63 = getelementptr inbounds %struct.node, %struct.node* %62, i32 0, i32 7
  store %struct.node* %61, %struct.node** %63, align 8
  %64 = load %struct.node*, %struct.node** %5, align 8
  store %struct.node* %64, %struct.node** %6, align 8
  %65 = getelementptr inbounds [100 x i8], [100 x i8]* %1, i64 0, i64 0
  %66 = call i32 (i8*, ...) @__isoc99_scanf(i8* getelementptr inbounds ([3 x i8], [3 x i8]* @.str.1, i64 0, i64 0), i8* %65)
  %67 = load i32, i32* %8, align 4
  %68 = add nsw i32 %67, 1
  store i32 %68, i32* %8, align 4
  br label %28

69:                                               ; preds = %28
  %70 = load %struct.node*, %struct.node** %6, align 8
  store %struct.node* %70, %struct.node** %5, align 8
  store i32 1, i32* %9, align 4
  br label %71

71:                                               ; preds = %99, %69
  %72 = load i32, i32* %9, align 4
  %73 = load i32, i32* %8, align 4
  %74 = icmp sle i32 %72, %73
  br i1 %74, label %75, label %102

75:                                               ; preds = %71
  %76 = load %struct.node*, %struct.node** %5, align 8
  %77 = getelementptr inbounds %struct.node, %struct.node* %76, i32 0, i32 0
  %78 = getelementptr inbounds [20 x i8], [20 x i8]* %77, i64 0, i64 0
  %79 = load %struct.node*, %struct.node** %5, align 8
  %80 = getelementptr inbounds %struct.node, %struct.node* %79, i32 0, i32 1
  %81 = getelementptr inbounds [20 x i8], [20 x i8]* %80, i64 0, i64 0
  %82 = load %struct.node*, %struct.node** %5, align 8
  %83 = getelementptr inbounds %struct.node, %struct.node* %82, i32 0, i32 2
  %84 = load i8, i8* %83, align 8
  %85 = sext i8 %84 to i32
  %86 = load %struct.node*, %struct.node** %5, align 8
  %87 = getelementptr inbounds %struct.node, %struct.node* %86, i32 0, i32 3
  %88 = load i32, i32* %87, align 4
  %89 = load %struct.node*, %struct.node** %5, align 8
  %90 = getelementptr inbounds %struct.node, %struct.node* %89, i32 0, i32 4
  %91 = getelementptr inbounds [10 x i8], [10 x i8]* %90, i64 0, i64 0
  %92 = load %struct.node*, %struct.node** %5, align 8
  %93 = getelementptr inbounds %struct.node, %struct.node* %92, i32 0, i32 5
  %94 = getelementptr inbounds [20 x i8], [20 x i8]* %93, i64 0, i64 0
  %95 = call i32 (i8*, ...) @printf(i8* getelementptr inbounds ([19 x i8], [19 x i8]* @.str.3, i64 0, i64 0), i8* %78, i8* %81, i32 %85, i32 %88, i8* %91, i8* %94)
  %96 = load %struct.node*, %struct.node** %5, align 8
  %97 = getelementptr inbounds %struct.node, %struct.node* %96, i32 0, i32 7
  %98 = load %struct.node*, %struct.node** %97, align 8
  store %struct.node* %98, %struct.node** %5, align 8
  br label %99

99:                                               ; preds = %75
  %100 = load i32, i32* %9, align 4
  %101 = add nsw i32 %100, 1
  store i32 %101, i32* %9, align 4
  br label %71

102:                                              ; preds = %71
  ret void
}

; Function Attrs: argmemonly nounwind willreturn
declare void @llvm.memcpy.p0i8.p0i8.i64(i8* noalias nocapture writeonly, i8* noalias nocapture readonly, i64, i1 immarg) #1

declare dso_local i32 @__isoc99_scanf(i8*, ...) #2

; Function Attrs: nounwind readonly
declare dso_local i32 @strcmp(i8*, i8*) #3

; Function Attrs: nounwind
declare dso_local noalias i8* @malloc(i64) #4

; Function Attrs: nounwind
declare dso_local i8* @strcpy(i8*, i8*) #4

declare dso_local i32 @printf(i8*, ...) #2


!llvm.module.flags = !{!0}
!llvm.ident = !{!1}

!0 = !{i32 1, !"wchar_size", i32 4}
!1 = !{!"clang version 10.0.0-4ubuntu1 "}
